target datalayout = "e-m:e-p270:32:32-p271:32:32-p272:64:64-i64:64-i128:128-f80:128-n8:16:32:64-S128"
target triple = "x86_64-pc-linux-gnu"

%"struct.icu_77::PCEBuffer" = type { [16 x %"struct.icu_77::PCEI"], ptr, i32, i32 }
%"struct.icu_77::PCEI" = type { i64, i32, i32 }
%"class.icu_77::UCollationPCE" = type <{ %"struct.icu_77::PCEBuffer", ptr, i32, i8, i8, [2 x i8], i32, [4 x i8] }>

; Function Attrs: mustprogress nounwind uwtable
define i32 @ucol_primaryOrder_77(i32 noundef %0) #0 {
  %2 = alloca i32, align 4
  store i32 %0, ptr %2, align 4, !tbaa !14
  %3 = load i32, ptr %2, align 4, !tbaa !14
  %4 = ashr i32 %3, 16
  %5 = and i32 %4, 65535
  ret i32 %5
}

; Function Attrs: mustprogress nounwind uwtable
define i32 @ucol_secondaryOrder_77(i32 noundef %0) #0 {
  %2 = alloca i32, align 4
  store i32 %0, ptr %2, align 4, !tbaa !14
  %3 = load i32, ptr %2, align 4, !tbaa !14
  %4 = ashr i32 %3, 8
  %5 = and i32 %4, 255
  ret i32 %5
}

; Function Attrs: mustprogress nounwind uwtable
define i32 @ucol_tertiaryOrder_77(i32 noundef %0) #0 {
  %2 = alloca i32, align 4
  store i32 %0, ptr %2, align 4, !tbaa !14
  %3 = load i32, ptr %2, align 4, !tbaa !14
  %4 = and i32 %3, 255
  ret i32 %4
}

; Function Attrs: mustprogress uwtable
define noundef i64 @_ZN6icu_7713UCollationPCE9processCEEj(ptr noundef nonnull align 8 dereferenceable(292) %0, i32 noundef %1) #3 align 2 {
  %3 = alloca i64, align 8
  %4 = alloca ptr, align 8
  %5 = alloca i32, align 4
  %6 = alloca i64, align 8
  %7 = alloca i64, align 8
  %8 = alloca i64, align 8
  %9 = alloca i64, align 8
  %10 = alloca i32, align 4
  store ptr %0, ptr %4, align 8, !tbaa !37
  store i32 %1, ptr %5, align 4, !tbaa !14
  %11 = load ptr, ptr %4, align 8
  call void @llvm.lifetime.start.p0(i64 8, ptr %6) #11
  store i64 0, ptr %6, align 8, !tbaa !30
  call void @llvm.lifetime.start.p0(i64 8, ptr %7) #11
  store i64 0, ptr %7, align 8, !tbaa !30
  call void @llvm.lifetime.start.p0(i64 8, ptr %8) #11
  store i64 0, ptr %8, align 8, !tbaa !30
  call void @llvm.lifetime.start.p0(i64 8, ptr %9) #11
  store i64 0, ptr %9, align 8, !tbaa !30
  %12 = getelementptr inbounds nuw %"class.icu_77::UCollationPCE", ptr %11, i32 0, i32 2
  %13 = load i32, ptr %12, align 8, !tbaa !58
  switch i32 %13, label %14 [
    i32 1, label %18
    i32 0, label %22
  ]

14:                                               ; preds = %2
  %15 = load i32, ptr %5, align 4, !tbaa !14
  %16 = call i32 @ucol_tertiaryOrder_77(i32 noundef %15)
  %17 = sext i32 %16 to i64
  store i64 %17, ptr %8, align 8, !tbaa !30
  br label %18

18:                                               ; preds = %2, %14
  %19 = load i32, ptr %5, align 4, !tbaa !14
  %20 = call i32 @ucol_secondaryOrder_77(i32 noundef %19)
  %21 = sext i32 %20 to i64
  store i64 %21, ptr %7, align 8, !tbaa !30
  br label %22

22:                                               ; preds = %2, %18
  %23 = load i32, ptr %5, align 4, !tbaa !14
  %24 = call i32 @ucol_primaryOrder_77(i32 noundef %23)
  %25 = sext i32 %24 to i64
  store i64 %25, ptr %6, align 8, !tbaa !30
  br label %26

26:                                               ; preds = %22
  %27 = getelementptr inbounds nuw %"class.icu_77::UCollationPCE", ptr %11, i32 0, i32 3
  %28 = load i8, ptr %27, align 4, !tbaa !59
  %29 = icmp ne i8 %28, 0
  br i1 %29, label %30, label %38

30:                                               ; preds = %26
  %31 = getelementptr inbounds nuw %"class.icu_77::UCollationPCE", ptr %11, i32 0, i32 6
  %32 = load i32, ptr %31, align 8, !tbaa !61
  %33 = load i32, ptr %5, align 4, !tbaa !14
  %34 = icmp ugt i32 %32, %33
  br i1 %34, label %35, label %38

35:                                               ; preds = %30
  %36 = load i64, ptr %6, align 8, !tbaa !30
  %37 = icmp ne i64 %36, 0
  br i1 %37, label %45, label %38

38:                                               ; preds = %35, %30, %26
  %39 = getelementptr inbounds nuw %"class.icu_77::UCollationPCE", ptr %11, i32 0, i32 4
  %40 = load i8, ptr %39, align 1, !tbaa !60
  %41 = icmp ne i8 %40, 0
  br i1 %41, label %42, label %57

42:                                               ; preds = %38
  %43 = load i64, ptr %6, align 8, !tbaa !30
  %44 = icmp eq i64 %43, 0
  br i1 %44, label %45, label %57

45:                                               ; preds = %42, %35
  %46 = load i64, ptr %6, align 8, !tbaa !30
  %47 = icmp eq i64 %46, 0
  br i1 %47, label %48, label %49

48:                                               ; preds = %45
  store i64 0, ptr %3, align 8
  store i32 1, ptr %10, align 4
  br label %75

49:                                               ; preds = %45
  %50 = getelementptr inbounds nuw %"class.icu_77::UCollationPCE", ptr %11, i32 0, i32 2
  %51 = load i32, ptr %50, align 8, !tbaa !58
  %52 = icmp sge i32 %51, 3
  br i1 %52, label %53, label %55

53:                                               ; preds = %49
  %54 = load i64, ptr %6, align 8, !tbaa !30
  store i64 %54, ptr %9, align 8, !tbaa !30
  br label %55

55:                                               ; preds = %53, %49
  store i64 0, ptr %8, align 8, !tbaa !30
  store i64 0, ptr %7, align 8, !tbaa !30
  store i64 0, ptr %6, align 8, !tbaa !30
  %56 = getelementptr inbounds nuw %"class.icu_77::UCollationPCE", ptr %11, i32 0, i32 4
  store i8 1, ptr %56, align 1, !tbaa !60
  br label %64

57:                                               ; preds = %42, %38
  %58 = getelementptr inbounds nuw %"class.icu_77::UCollationPCE", ptr %11, i32 0, i32 2
  %59 = load i32, ptr %58, align 8, !tbaa !58
  %60 = icmp sge i32 %59, 3
  br i1 %60, label %61, label %62

61:                                               ; preds = %57
  store i64 65535, ptr %9, align 8, !tbaa !30
  br label %62

62:                                               ; preds = %61, %57
  %63 = getelementptr inbounds nuw %"class.icu_77::UCollationPCE", ptr %11, i32 0, i32 4
  store i8 0, ptr %63, align 1, !tbaa !60
  br label %64

64:                                               ; preds = %62, %55
  %65 = load i64, ptr %6, align 8, !tbaa !30
  %66 = shl i64 %65, 48
  %67 = load i64, ptr %7, align 8, !tbaa !30
  %68 = shl i64 %67, 32
  %69 = or i64 %66, %68
  %70 = load i64, ptr %8, align 8, !tbaa !30
  %71 = shl i64 %70, 16
  %72 = or i64 %69, %71
  %73 = load i64, ptr %9, align 8, !tbaa !30
  %74 = or i64 %72, %73
  store i64 %74, ptr %3, align 8
  store i32 1, ptr %10, align 4
  br label %75

75:                                               ; preds = %64, %48
  call void @llvm.lifetime.end.p0(i64 8, ptr %9) #11
  call void @llvm.lifetime.end.p0(i64 8, ptr %8) #11
  call void @llvm.lifetime.end.p0(i64 8, ptr %7) #11
  call void @llvm.lifetime.end.p0(i64 8, ptr %6) #11
  %76 = load i64, ptr %3, align 8
  ret i64 %76
}