; Function Attrs: mustprogress nofree norecurse nosync nounwind willreturn memory(argmem: readwrite) uwtable
define noundef range(i64 0, -280375465082880) i64 @_ZN6icu_7713UCollationPCE9processCEEj(ptr noundef nonnull align 8 captures(none) dereferenceable(292) %0, i32 noundef %1) local_unnamed_addr #10 align 2 {
  %3 = getelementptr inbounds nuw i8, ptr %0, i64 280
  %4 = load i32, ptr %3, align 8, !tbaa !42
  switch i32 %4, label %5 [
    i32 1, label %9
    i32 0, label %14
  ]

5:                                                ; preds = %2
  %6 = shl i32 %1, 16
  %7 = and i32 %6, 16711680
  %8 = zext nneg i32 %7 to i64
  br label %9

9:                                                ; preds = %5, %2
  %.016 = phi i64 [ %8, %5 ], [ 0, %2 ]
  %10 = lshr i32 %1, 8
  %11 = and i32 %10, 255
  %12 = zext nneg i32 %11 to i64
  %13 = shl nuw nsw i64 %12, 32
  br label %14

14:                                               ; preds = %9, %2
  %.019 = phi i64 [ %13, %9 ], [ 0, %2 ]
  %.117 = phi i64 [ %.016, %9 ], [ 0, %2 ]
  %15 = lshr i32 %1, 16
  %16 = zext nneg i32 %15 to i64
  %17 = getelementptr inbounds nuw i8, ptr %0, i64 284
  %18 = load i8, ptr %17, align 4, !tbaa !43
  %.not = icmp eq i8 %18, 0
  br i1 %.not, label %24, label %19

19:                                               ; preds = %14
  %20 = getelementptr inbounds nuw i8, ptr %0, i64 288
  %21 = load i32, ptr %20, align 8, !tbaa !45
  %22 = icmp ugt i32 %21, %1
  %23 = icmp ugt i32 %1, 65535
  %or.cond = and i1 %23, %22
  br i1 %or.cond, label %29, label %24

24:                                               ; preds = %19, %14
  %25 = getelementptr inbounds nuw i8, ptr %0, i64 285
  %26 = load i8, ptr %25, align 1, !tbaa !44
  %27 = icmp ne i8 %26, 0
  %28 = icmp ult i32 %1, 65536
  %or.cond3 = and i1 %28, %27
  br i1 %or.cond3, label %.thread, label %32

29:                                               ; preds = %19
  %30 = icmp sgt i32 %4, 2
  %spec.select = select i1 %30, i64 %16, i64 0
  %31 = getelementptr inbounds nuw i8, ptr %0, i64 285
  store i8 1, ptr %31, align 1, !tbaa !44
  br label %37

32:                                               ; preds = %24
  %33 = icmp sgt i32 %4, 2
  %spec.select24 = select i1 %33, i64 65535, i64 0
  store i8 0, ptr %25, align 1, !tbaa !44
  %34 = shl nuw i64 %16, 48
  %35 = or i64 %.019, %34
  %36 = or i64 %35, %.117
  br label %37

37:                                               ; preds = %32, %29
  %.1 = phi i64 [ %spec.select, %29 ], [ %spec.select24, %32 ]
  %38 = phi i64 [ 0, %29 ], [ %36, %32 ]
  %39 = or i64 %38, %.1
  br label %.thread

.thread:                                          ; preds = %24, %37
  %.022 = phi i64 [ %39, %37 ], [ 0, %24 ]
  ret i64 %.022
}